target datalayout = "e-m:e-p270:32:32-p271:32:32-p272:64:64-i64:64-i128:128-f80:128-n8:16:32:64-S128"
target triple = "x86_64-unknown-linux-gnu"

%struct.V9fsPath = type { i16, ptr }
%struct.V9fsState = type { %struct.anon, %struct.anon.0, ptr, ptr, %struct.FsContext, ptr, i32, i32, [128 x %struct.V9fsPDU], ptr, %struct.CoRwlock, i32, ptr, %struct.V9fsConf, %struct.stat, i64, %struct.qht, %struct.qht, %struct.qht, i64, i16, i64 }
%struct.anon = type { ptr }
%struct.anon.0 = type { ptr }
%struct.FsContext = type { i32, ptr, i32, ptr, %struct.ExtendedOps, ptr, ptr, i32, i32 }
%struct.ExtendedOps = type { ptr }
%struct.V9fsPDU = type { i32, i16, i8, i8, %struct.CoQueue, ptr, %struct.anon.2, i32 }
%struct.CoQueue = type { %struct.anon.1 }
%struct.anon.1 = type { ptr, ptr }
%struct.anon.2 = type { ptr, ptr }
%struct.CoRwlock = type { %struct.CoMutex, i32, %struct.anon.4 }
%struct.CoMutex = type { i32, ptr, %struct.anon.3, %struct.anon.3, i32, i32, ptr }
%struct.anon.3 = type { ptr }
%struct.anon.4 = type { ptr, ptr }
%struct.V9fsConf = type { ptr, ptr }
%struct.stat = type { i64, i64, i64, i32, i32, i32, i32, i64, i64, i64, i64, %struct.timespec, %struct.timespec, %struct.timespec, [3 x i64] }
%struct.timespec = type { i64, i64 }
%struct.qht = type { ptr, ptr, %struct.QemuMutex, i32 }
%struct.QemuMutex = type { %union.pthread_mutex_t, i8 }
%union.pthread_mutex_t = type { %struct.__pthread_mutex_s }
%struct.__pthread_mutex_s = type { i32, i32, i32, i32, i32, i16, i16, %struct.__pthread_internal_list }
%struct.__pthread_internal_list = type { ptr, ptr }
%struct.V9fsFidState = type { i32, i32, %struct.V9fsPath, %union.V9fsFidOpenState, %union.V9fsFidOpenState, i32, i32, i32, i32, i8, %struct.anon.6, %struct.anon.7 }
%union.V9fsFidOpenState = type { %struct.V9fsDir }
%struct.V9fsDir = type { ptr, i32, %struct.CoMutex, %struct.QemuMutex }
%struct.anon.6 = type { ptr }
%struct.anon.7 = type { ptr }
%struct.V9fsString = type { i16, ptr }
%struct.timeval = type { i64, i64 }

@.str = private unnamed_addr constant [21 x i8] c"../qemu/hw/9pfs/9p.c\00", align 1
@.str.13 = private unnamed_addr constant [14 x i8] c"!(!fidp->ref)\00", align 1
@__PRETTY_FUNCTION__.put_fid = private unnamed_addr constant [39 x i8] c"int put_fid(V9fsPDU *, V9fsFidState *)\00", align 1
@.str.14 = private unnamed_addr constant [2 x i8] c"d\00", align 1
@.str.17 = private unnamed_addr constant [2 x i8] c"s\00", align 1
@trace_events_enabled_count = external global i32, align 4
@message_with_timestamp = external global i8, align 1
@qemu_loglevel = external global i32, align 4
@_TRACE_V9FS_READLINK_DSTATE = external global i16, align 2
@.str.56 = private unnamed_addr constant [48 x i8] c"%d@%zu.%06zu:v9fs_readlink tag %d id %d fid %d\0A\00", align 1
@.str.57 = private unnamed_addr constant [35 x i8] c"v9fs_readlink tag %d id %d fid %d\0A\00", align 1
@_TRACE_V9FS_READLINK_RETURN_DSTATE = external global i16, align 2
@.str.58 = private unnamed_addr constant [56 x i8] c"%d@%zu.%06zu:v9fs_readlink_return tag %d id %d name %s\0A\00", align 1
@.str.59 = private unnamed_addr constant [43 x i8] c"v9fs_readlink_return tag %d id %d name %s\0A\00", align 1

; Function Attrs: nounwind sspstrong uwtable
define internal zeroext i1 @qemu_loglevel_mask(i32 noundef %mask) #0 {
entry:
  %mask.addr = alloca i32, align 4
  store i32 %mask, ptr %mask.addr, align 4
  %0 = load i32, ptr @qemu_loglevel, align 4
  %1 = load i32, ptr %mask.addr, align 4
  %and = and i32 %0, %1
  %cmp = icmp ne i32 %and, 0
  ret i1 %cmp
}

; Function Attrs: nounwind sspstrong uwtable
define internal void @_nocheck__trace_v9fs_readlink_return(i16 noundef zeroext %tag, i8 noundef zeroext %id, ptr noundef %target) #0 {
entry:
  %tag.addr = alloca i16, align 2
  %id.addr = alloca i8, align 1
  %target.addr = alloca ptr, align 8
  %_now = alloca %struct.timeval, align 8
  store i16 %tag, ptr %tag.addr, align 2
  store i8 %id, ptr %id.addr, align 1
  store ptr %target, ptr %target.addr, align 8
  %0 = load i32, ptr @trace_events_enabled_count, align 4
  %tobool = icmp ne i32 %0, 0
  %lnot = xor i1 %tobool, true
  %lnot1 = xor i1 %lnot, true
  %lnot.ext = zext i1 %lnot1 to i32
  %conv = sext i32 %lnot.ext to i64
  %tobool2 = icmp ne i64 %conv, 0
  br i1 %tobool2, label %land.lhs.true, label %if.end15

land.lhs.true:                                    ; preds = %entry
  %1 = load i16, ptr @_TRACE_V9FS_READLINK_RETURN_DSTATE, align 2
  %conv3 = zext i16 %1 to i32
  %tobool4 = icmp ne i32 %conv3, 0
  br i1 %tobool4, label %land.lhs.true5, label %if.end15

land.lhs.true5:                                   ; preds = %land.lhs.true
  %call = call zeroext i1 @qemu_loglevel_mask(i32 noundef 32768)
  br i1 %call, label %if.then, label %if.end15

if.then:                                          ; preds = %land.lhs.true5
  %2 = load i8, ptr @message_with_timestamp, align 1
  %tobool7 = trunc i8 %2 to i1
  br i1 %tobool7, label %if.then8, label %if.else

if.then8:                                         ; preds = %if.then
  %call9 = call i32 @gettimeofday(ptr noundef %_now, ptr noundef null) #19
  %call10 = call i32 @qemu_get_thread_id()
  %tv_sec = getelementptr inbounds %struct.timeval, ptr %_now, i32 0, i32 0
  %3 = load i64, ptr %tv_sec, align 8
  %tv_usec = getelementptr inbounds %struct.timeval, ptr %_now, i32 0, i32 1
  %4 = load i64, ptr %tv_usec, align 8
  %5 = load i16, ptr %tag.addr, align 2
  %conv11 = zext i16 %5 to i32
  %6 = load i8, ptr %id.addr, align 1
  %conv12 = zext i8 %6 to i32
  %7 = load ptr, ptr %target.addr, align 8
  call void (ptr, ...) @qemu_log(ptr noundef @.str.58, i32 noundef %call10, i64 noundef %3, i64 noundef %4, i32 noundef %conv11, i32 noundef %conv12, ptr noundef %7)
  br label %if.end

if.else:                                          ; preds = %if.then
  %8 = load i16, ptr %tag.addr, align 2
  %conv13 = zext i16 %8 to i32
  %9 = load i8, ptr %id.addr, align 1
  %conv14 = zext i8 %9 to i32
  %10 = load ptr, ptr %target.addr, align 8
  call void (ptr, ...) @qemu_log(ptr noundef @.str.59, i32 noundef %conv13, i32 noundef %conv14, ptr noundef %10)
  br label %if.end

if.end:                                           ; preds = %if.else, %if.then8
  br label %if.end15

if.end15:                                         ; preds = %if.end, %land.lhs.true5, %land.lhs.true, %entry
  ret void
}

; Function Attrs: nounwind sspstrong uwtable
define internal void @_nocheck__trace_v9fs_readlink(i16 noundef zeroext %tag, i8 noundef zeroext %id, i32 noundef %fid) #0 {
entry:
  %tag.addr = alloca i16, align 2
  %id.addr = alloca i8, align 1
  %fid.addr = alloca i32, align 4
  %_now = alloca %struct.timeval, align 8
  store i16 %tag, ptr %tag.addr, align 2
  store i8 %id, ptr %id.addr, align 1
  store i32 %fid, ptr %fid.addr, align 4
  %0 = load i32, ptr @trace_events_enabled_count, align 4
  %tobool = icmp ne i32 %0, 0
  %lnot = xor i1 %tobool, true
  %lnot1 = xor i1 %lnot, true
  %lnot.ext = zext i1 %lnot1 to i32
  %conv = sext i32 %lnot.ext to i64
  %tobool2 = icmp ne i64 %conv, 0
  br i1 %tobool2, label %land.lhs.true, label %if.end15

land.lhs.true:                                    ; preds = %entry
  %1 = load i16, ptr @_TRACE_V9FS_READLINK_DSTATE, align 2
  %conv3 = zext i16 %1 to i32
  %tobool4 = icmp ne i32 %conv3, 0
  br i1 %tobool4, label %land.lhs.true5, label %if.end15

land.lhs.true5:                                   ; preds = %land.lhs.true
  %call = call zeroext i1 @qemu_loglevel_mask(i32 noundef 32768)
  br i1 %call, label %if.then, label %if.end15

if.then:                                          ; preds = %land.lhs.true5
  %2 = load i8, ptr @message_with_timestamp, align 1
  %tobool7 = trunc i8 %2 to i1
  br i1 %tobool7, label %if.then8, label %if.else

if.then8:                                         ; preds = %if.then
  %call9 = call i32 @gettimeofday(ptr noundef %_now, ptr noundef null) #19
  %call10 = call i32 @qemu_get_thread_id()
  %tv_sec = getelementptr inbounds %struct.timeval, ptr %_now, i32 0, i32 0
  %3 = load i64, ptr %tv_sec, align 8
  %tv_usec = getelementptr inbounds %struct.timeval, ptr %_now, i32 0, i32 1
  %4 = load i64, ptr %tv_usec, align 8
  %5 = load i16, ptr %tag.addr, align 2
  %conv11 = zext i16 %5 to i32
  %6 = load i8, ptr %id.addr, align 1
  %conv12 = zext i8 %6 to i32
  %7 = load i32, ptr %fid.addr, align 4
  call void (ptr, ...) @qemu_log(ptr noundef @.str.56, i32 noundef %call10, i64 noundef %3, i64 noundef %4, i32 noundef %conv11, i32 noundef %conv12, i32 noundef %7)
  br label %if.end

if.else:                                          ; preds = %if.then
  %8 = load i16, ptr %tag.addr, align 2
  %conv13 = zext i16 %8 to i32
  %9 = load i8, ptr %id.addr, align 1
  %conv14 = zext i8 %9 to i32
  %10 = load i32, ptr %fid.addr, align 4
  call void (ptr, ...) @qemu_log(ptr noundef @.str.57, i32 noundef %conv13, i32 noundef %conv14, i32 noundef %10)
  br label %if.end

if.end:                                           ; preds = %if.else, %if.then8
  br label %if.end15

if.end15:                                         ; preds = %if.end, %land.lhs.true5, %land.lhs.true, %entry
  ret void
}

; Function Attrs: nounwind sspstrong uwtable
define internal i32 @put_fid(ptr noundef %pdu, ptr noundef %fidp) #0 {
entry:
  %retval = alloca i32, align 4
  %pdu.addr = alloca ptr, align 8
  %fidp.addr = alloca ptr, align 8
  store ptr %pdu, ptr %pdu.addr, align 8
  store ptr %fidp, ptr %fidp.addr, align 8
  %0 = load ptr, ptr %fidp.addr, align 8
  %ref = getelementptr inbounds %struct.V9fsFidState, ptr %0, i32 0, i32 8
  %1 = load i32, ptr %ref, align 4
  %tobool = icmp ne i32 %1, 0
  br i1 %tobool, label %if.then, label %if.else

if.then:                                          ; preds = %entry
  br label %if.end

if.else:                                          ; preds = %entry
  call void @__assert_fail(ptr noundef @.str.13, ptr noundef @.str, i32 noundef 396, ptr noundef @__PRETTY_FUNCTION__.put_fid) #16
  unreachable

if.end:                                           ; preds = %if.then
  %2 = load ptr, ptr %fidp.addr, align 8
  %ref1 = getelementptr inbounds %struct.V9fsFidState, ptr %2, i32 0, i32 8
  %3 = load i32, ptr %ref1, align 4
  %dec = add i32 %3, -1
  store i32 %dec, ptr %ref1, align 4
  %4 = load ptr, ptr %fidp.addr, align 8
  %ref2 = getelementptr inbounds %struct.V9fsFidState, ptr %4, i32 0, i32 8
  %5 = load i32, ptr %ref2, align 4
  %tobool3 = icmp ne i32 %5, 0
  br i1 %tobool3, label %if.end9, label %land.lhs.true

land.lhs.true:                                    ; preds = %if.end
  %6 = load ptr, ptr %fidp.addr, align 8
  %clunked = getelementptr inbounds %struct.V9fsFidState, ptr %6, i32 0, i32 9
  %7 = load i8, ptr %clunked, align 8
  %tobool4 = trunc i8 %7 to i1
  br i1 %tobool4, label %if.then5, label %if.end9

if.then5:                                         ; preds = %land.lhs.true
  %8 = load ptr, ptr %fidp.addr, align 8
  %fid = getelementptr inbounds %struct.V9fsFidState, ptr %8, i32 0, i32 1
  %9 = load i32, ptr %fid, align 4
  %10 = load ptr, ptr %pdu.addr, align 8
  %s = getelementptr inbounds %struct.V9fsPDU, ptr %10, i32 0, i32 5
  %11 = load ptr, ptr %s, align 8
  %root_fid = getelementptr inbounds %struct.V9fsState, ptr %11, i32 0, i32 11
  %12 = load i32, ptr %root_fid, align 8
  %cmp = icmp eq i32 %9, %12
  br i1 %cmp, label %if.then6, label %if.end8

if.then6:                                         ; preds = %if.then5
  %13 = load ptr, ptr %pdu.addr, align 8
  %s7 = getelementptr inbounds %struct.V9fsPDU, ptr %13, i32 0, i32 5
  %14 = load ptr, ptr %s7, align 8
  %migration_blocker = getelementptr inbounds %struct.V9fsState, ptr %14, i32 0, i32 12
  call void @migrate_del_blocker(ptr noundef %migration_blocker)
  br label %if.end8

if.end8:                                          ; preds = %if.then6, %if.then5
  %15 = load ptr, ptr %pdu.addr, align 8
  %16 = load ptr, ptr %fidp.addr, align 8
  %call = call i32 @free_fid(ptr noundef %15, ptr noundef %16)
  store i32 %call, ptr %retval, align 4
  br label %return

if.end9:                                          ; preds = %land.lhs.true, %if.end
  store i32 0, ptr %retval, align 4
  br label %return

return:                                           ; preds = %if.end9, %if.end8
  %17 = load i32, ptr %retval, align 4
  ret i32 %17
}

; Function Attrs: nounwind sspstrong uwtable
define internal void @trace_v9fs_readlink_return(i16 noundef zeroext %tag, i8 noundef zeroext %id, ptr noundef %target) #0 {
entry:
  %tag.addr = alloca i16, align 2
  %id.addr = alloca i8, align 1
  %target.addr = alloca ptr, align 8
  store i16 %tag, ptr %tag.addr, align 2
  store i8 %id, ptr %id.addr, align 1
  store ptr %target, ptr %target.addr, align 8
  %0 = load i16, ptr %tag.addr, align 2
  %1 = load i8, ptr %id.addr, align 1
  %2 = load ptr, ptr %target.addr, align 8
  call void @_nocheck__trace_v9fs_readlink_return(i16 noundef zeroext %0, i8 noundef zeroext %1, ptr noundef %2)
  ret void
}

; Function Attrs: nounwind sspstrong uwtable
define internal void @v9fs_string_init(ptr noundef %str) #0 {
entry:
  %str.addr = alloca ptr, align 8
  store ptr %str, ptr %str.addr, align 8
  %0 = load ptr, ptr %str.addr, align 8
  %data = getelementptr inbounds %struct.V9fsString, ptr %0, i32 0, i32 1
  store ptr null, ptr %data, align 8
  %1 = load ptr, ptr %str.addr, align 8
  %size = getelementptr inbounds %struct.V9fsString, ptr %1, i32 0, i32 0
  store i16 0, ptr %size, align 8
  ret void
}

; Function Attrs: nounwind sspstrong uwtable
define internal void @trace_v9fs_readlink(i16 noundef zeroext %tag, i8 noundef zeroext %id, i32 noundef %fid) #0 {
entry:
  %tag.addr = alloca i16, align 2
  %id.addr = alloca i8, align 1
  %fid.addr = alloca i32, align 4
  store i16 %tag, ptr %tag.addr, align 2
  store i8 %id, ptr %id.addr, align 1
  store i32 %fid, ptr %fid.addr, align 4
  %0 = load i16, ptr %tag.addr, align 2
  %1 = load i8, ptr %id.addr, align 1
  %2 = load i32, ptr %fid.addr, align 4
  call void @_nocheck__trace_v9fs_readlink(i16 noundef zeroext %0, i8 noundef zeroext %1, i32 noundef %2)
  ret void
}

; Function Attrs: nounwind sspstrong uwtable
define internal void @v9fs_readlink(ptr noundef %opaque) #0 {
entry:
  %opaque.addr = alloca ptr, align 8
  %pdu = alloca ptr, align 8
  %offset = alloca i64, align 8
  %target = alloca %struct.V9fsString, align 8
  %fid = alloca i32, align 4
  %err = alloca i32, align 4
  %fidp = alloca ptr, align 8
  store ptr %opaque, ptr %opaque.addr, align 8
  %0 = load ptr, ptr %opaque.addr, align 8
  store ptr %0, ptr %pdu, align 8
  store i64 7, ptr %offset, align 8
  store i32 0, ptr %err, align 4
  %1 = load ptr, ptr %pdu, align 8
  %2 = load i64, ptr %offset, align 8
  %call = call i64 (ptr, i64, ptr, ...) @pdu_unmarshal(ptr noundef %1, i64 noundef %2, ptr noundef @.str.14, ptr noundef %fid)
  %conv = trunc i64 %call to i32
  store i32 %conv, ptr %err, align 4
  %3 = load i32, ptr %err, align 4
  %cmp = icmp slt i32 %3, 0
  br i1 %cmp, label %if.then, label %if.end

if.then:                                          ; preds = %entry
  br label %out_nofid

if.end:                                           ; preds = %entry
  %4 = load ptr, ptr %pdu, align 8
  %tag = getelementptr inbounds %struct.V9fsPDU, ptr %4, i32 0, i32 1
  %5 = load i16, ptr %tag, align 4
  %6 = load ptr, ptr %pdu, align 8
  %id = getelementptr inbounds %struct.V9fsPDU, ptr %6, i32 0, i32 2
  %7 = load i8, ptr %id, align 2
  %8 = load i32, ptr %fid, align 4
  call void @trace_v9fs_readlink(i16 noundef zeroext %5, i8 noundef zeroext %7, i32 noundef %8)
  %9 = load ptr, ptr %pdu, align 8
  %10 = load i32, ptr %fid, align 4
  %call2 = call ptr @get_fid(ptr noundef %9, i32 noundef %10)
  store ptr %call2, ptr %fidp, align 8
  %11 = load ptr, ptr %fidp, align 8
  %cmp3 = icmp eq ptr %11, null
  br i1 %cmp3, label %if.then5, label %if.end6

if.then5:                                         ; preds = %if.end
  store i32 -2, ptr %err, align 4
  br label %out_nofid

if.end6:                                          ; preds = %if.end
  call void @v9fs_string_init(ptr noundef %target)
  %12 = load ptr, ptr %pdu, align 8
  %13 = load ptr, ptr %fidp, align 8
  %path = getelementptr inbounds %struct.V9fsFidState, ptr %13, i32 0, i32 2
  %call7 = call i32 @v9fs_co_readlink(ptr noundef %12, ptr noundef %path, ptr noundef %target)
  store i32 %call7, ptr %err, align 4
  %14 = load i32, ptr %err, align 4
  %cmp8 = icmp slt i32 %14, 0
  br i1 %cmp8, label %if.then10, label %if.end11

if.then10:                                        ; preds = %if.end6
  br label %out

if.end11:                                         ; preds = %if.end6
  %15 = load ptr, ptr %pdu, align 8
  %16 = load i64, ptr %offset, align 8
  %call12 = call i64 (ptr, i64, ptr, ...) @pdu_marshal(ptr noundef %15, i64 noundef %16, ptr noundef @.str.17, ptr noundef %target)
  %conv13 = trunc i64 %call12 to i32
  store i32 %conv13, ptr %err, align 4
  %17 = load i32, ptr %err, align 4
  %cmp14 = icmp slt i32 %17, 0
  br i1 %cmp14, label %if.then16, label %if.end17

if.then16:                                        ; preds = %if.end11
  call void @v9fs_string_free(ptr noundef %target)
  br label %out

if.end17:                                         ; preds = %if.end11
  %18 = load i64, ptr %offset, align 8
  %19 = load i32, ptr %err, align 4
  %conv18 = sext i32 %19 to i64
  %add = add i64 %conv18, %18
  %conv19 = trunc i64 %add to i32
  store i32 %conv19, ptr %err, align 4
  %20 = load ptr, ptr %pdu, align 8
  %tag20 = getelementptr inbounds %struct.V9fsPDU, ptr %20, i32 0, i32 1
  %21 = load i16, ptr %tag20, align 4
  %22 = load ptr, ptr %pdu, align 8
  %id21 = getelementptr inbounds %struct.V9fsPDU, ptr %22, i32 0, i32 2
  %23 = load i8, ptr %id21, align 2
  %data = getelementptr inbounds %struct.V9fsString, ptr %target, i32 0, i32 1
  %24 = load ptr, ptr %data, align 8
  call void @trace_v9fs_readlink_return(i16 noundef zeroext %21, i8 noundef zeroext %23, ptr noundef %24)
  call void @v9fs_string_free(ptr noundef %target)
  br label %out

out:                                              ; preds = %if.end17, %if.then16, %if.then10
  %25 = load ptr, ptr %pdu, align 8
  %26 = load ptr, ptr %fidp, align 8
  %call22 = call i32 @put_fid(ptr noundef %25, ptr noundef %26)
  br label %out_nofid

out_nofid:                                        ; preds = %out, %if.then5, %if.then
  %27 = load ptr, ptr %pdu, align 8
  %28 = load i32, ptr %err, align 4
  %conv23 = sext i32 %28 to i64
  call void @pdu_complete(ptr noundef %27, i64 noundef %conv23)
  ret void
}