; Function Attrs: nounwind sspstrong uwtable
define internal void @v9fs_readlink(ptr noundef %opaque) #0 {
entry:
  %_now.i.i18 = alloca %struct.timeval, align 8
  %_now.i.i = alloca %struct.timeval, align 8
  %target = alloca %struct.V9fsString, align 8
  %fid = alloca i32, align 4
  %call = call i64 (ptr, i64, ptr, ...) @pdu_unmarshal(ptr noundef %opaque, i64 noundef 7, ptr noundef nonnull @.str.14, ptr noundef nonnull %fid)
  %conv = trunc i64 %call to i32
  %cmp = icmp slt i32 %conv, 0
  br i1 %cmp, label %out_nofid, label %if.end

if.end:                                           ; preds = %entry
  %tag = getelementptr inbounds nuw i8, ptr %opaque, i64 4
  %0 = load i16, ptr %tag, align 4
  %id = getelementptr inbounds nuw i8, ptr %opaque, i64 6
  %1 = load i8, ptr %id, align 2
  %2 = load i32, ptr %fid, align 4
  call void @llvm.lifetime.start.p0(i64 16, ptr nonnull %_now.i.i)
  %3 = load i32, ptr @trace_events_enabled_count, align 4
  %tobool.i.i = icmp ne i32 %3, 0
  %4 = load i16, ptr @_TRACE_V9FS_READLINK_DSTATE, align 2
  %tobool4.i.i = icmp ne i16 %4, 0
  %or.cond.i.i = select i1 %tobool.i.i, i1 %tobool4.i.i, i1 false
  br i1 %or.cond.i.i, label %land.lhs.true5.i.i, label %trace_v9fs_readlink.exit

land.lhs.true5.i.i:                               ; preds = %if.end
  %5 = load i32, ptr @qemu_loglevel, align 4
  %and.i.i.i = and i32 %5, 32768
  %cmp.i.not.i.i = icmp eq i32 %and.i.i.i, 0
  br i1 %cmp.i.not.i.i, label %trace_v9fs_readlink.exit, label %if.then.i.i

if.then.i.i:                                      ; preds = %land.lhs.true5.i.i
  %6 = load i8, ptr @message_with_timestamp, align 1
  %tobool7.i.i = trunc i8 %6 to i1
  br i1 %tobool7.i.i, label %if.then8.i.i, label %if.else.i.i

if.then8.i.i:                                     ; preds = %if.then.i.i
  %call9.i.i = call i32 @gettimeofday(ptr noundef nonnull %_now.i.i, ptr noundef null) #24
  %call10.i.i = call i32 @qemu_get_thread_id() #24
  %7 = load i64, ptr %_now.i.i, align 8
  %tv_usec.i.i = getelementptr inbounds nuw i8, ptr %_now.i.i, i64 8
  %8 = load i64, ptr %tv_usec.i.i, align 8
  %conv11.i.i = zext i16 %0 to i32
  %conv12.i.i = zext i8 %1 to i32
  call void (ptr, ...) @qemu_log(ptr noundef nonnull @.str.56, i32 noundef %call10.i.i, i64 noundef %7, i64 noundef %8, i32 noundef %conv11.i.i, i32 noundef %conv12.i.i, i32 noundef %2) #24
  br label %trace_v9fs_readlink.exit

if.else.i.i:                                      ; preds = %if.then.i.i
  %conv13.i.i = zext i16 %0 to i32
  %conv14.i.i = zext i8 %1 to i32
  call void (ptr, ...) @qemu_log(ptr noundef nonnull @.str.57, i32 noundef %conv13.i.i, i32 noundef %conv14.i.i, i32 noundef %2) #24
  br label %trace_v9fs_readlink.exit

trace_v9fs_readlink.exit:                         ; preds = %if.end, %land.lhs.true5.i.i, %if.then8.i.i, %if.else.i.i
  call void @llvm.lifetime.end.p0(i64 16, ptr nonnull %_now.i.i)
  %9 = load i32, ptr %fid, align 4
  %call2 = call ptr @get_fid(ptr noundef nonnull %opaque, i32 noundef %9)
  %cmp3 = icmp eq ptr %call2, null
  br i1 %cmp3, label %out_nofid, label %if.end6

if.end6:                                          ; preds = %trace_v9fs_readlink.exit
  %data.i = getelementptr inbounds nuw i8, ptr %target, i64 8
  store ptr null, ptr %data.i, align 8
  store i16 0, ptr %target, align 8
  %path = getelementptr inbounds nuw i8, ptr %call2, i64 8
  %call7 = call i32 @v9fs_co_readlink(ptr noundef nonnull %opaque, ptr noundef nonnull %path, ptr noundef nonnull %target) #24
  %cmp8 = icmp slt i32 %call7, 0
  br i1 %cmp8, label %out, label %if.end11

if.end11:                                         ; preds = %if.end6
  %call12 = call i64 (ptr, i64, ptr, ...) @pdu_marshal(ptr noundef nonnull %opaque, i64 noundef 7, ptr noundef nonnull @.str.17, ptr noundef nonnull %target)
  %conv13 = trunc i64 %call12 to i32
  %cmp14 = icmp slt i32 %conv13, 0
  br i1 %cmp14, label %out.sink.split, label %if.end17

if.end17:                                         ; preds = %if.end11
  %conv19 = add nuw i32 %conv13, 7
  %10 = load i16, ptr %tag, align 4
  %11 = load i8, ptr %id, align 2
  %12 = load ptr, ptr %data.i, align 8
  call void @llvm.lifetime.start.p0(i64 16, ptr nonnull %_now.i.i18)
  %13 = load i32, ptr @trace_events_enabled_count, align 4
  %tobool.i.i19 = icmp ne i32 %13, 0
  %14 = load i16, ptr @_TRACE_V9FS_READLINK_RETURN_DSTATE, align 2
  %tobool4.i.i20 = icmp ne i16 %14, 0
  %or.cond.i.i21 = select i1 %tobool.i.i19, i1 %tobool4.i.i20, i1 false
  br i1 %or.cond.i.i21, label %land.lhs.true5.i.i22, label %trace_v9fs_readlink_return.exit

land.lhs.true5.i.i22:                             ; preds = %if.end17
  %15 = load i32, ptr @qemu_loglevel, align 4
  %and.i.i.i23 = and i32 %15, 32768
  %cmp.i.not.i.i24 = icmp eq i32 %and.i.i.i23, 0
  br i1 %cmp.i.not.i.i24, label %trace_v9fs_readlink_return.exit, label %if.then.i.i25

if.then.i.i25:                                    ; preds = %land.lhs.true5.i.i22
  %16 = load i8, ptr @message_with_timestamp, align 1
  %tobool7.i.i26 = trunc i8 %16 to i1
  br i1 %tobool7.i.i26, label %if.then8.i.i30, label %if.else.i.i27

if.then8.i.i30:                                   ; preds = %if.then.i.i25
  %call9.i.i31 = call i32 @gettimeofday(ptr noundef nonnull %_now.i.i18, ptr noundef null) #24
  %call10.i.i32 = call i32 @qemu_get_thread_id() #24
  %17 = load i64, ptr %_now.i.i18, align 8
  %tv_usec.i.i33 = getelementptr inbounds nuw i8, ptr %_now.i.i18, i64 8
  %18 = load i64, ptr %tv_usec.i.i33, align 8
  %conv11.i.i34 = zext i16 %10 to i32
  %conv12.i.i35 = zext i8 %11 to i32
  call void (ptr, ...) @qemu_log(ptr noundef nonnull @.str.58, i32 noundef %call10.i.i32, i64 noundef %17, i64 noundef %18, i32 noundef %conv11.i.i34, i32 noundef %conv12.i.i35, ptr noundef %12) #24
  br label %trace_v9fs_readlink_return.exit

if.else.i.i27:                                    ; preds = %if.then.i.i25
  %conv13.i.i28 = zext i16 %10 to i32
  %conv14.i.i29 = zext i8 %11 to i32
  call void (ptr, ...) @qemu_log(ptr noundef nonnull @.str.59, i32 noundef %conv13.i.i28, i32 noundef %conv14.i.i29, ptr noundef %12) #24
  br label %trace_v9fs_readlink_return.exit

trace_v9fs_readlink_return.exit:                  ; preds = %if.end17, %land.lhs.true5.i.i22, %if.then8.i.i30, %if.else.i.i27
  call void @llvm.lifetime.end.p0(i64 16, ptr nonnull %_now.i.i18)
  br label %out.sink.split

out.sink.split:                                   ; preds = %if.end11, %trace_v9fs_readlink_return.exit
  %err.1.ph = phi i32 [ %conv19, %trace_v9fs_readlink_return.exit ], [ %conv13, %if.end11 ]
  call void @v9fs_string_free(ptr noundef nonnull %target) #24
  br label %out

out:                                              ; preds = %out.sink.split, %if.end6
  %err.1 = phi i32 [ %call7, %if.end6 ], [ %err.1.ph, %out.sink.split ]
  %ref.i = getelementptr inbounds nuw i8, ptr %call2, i64 260
  %19 = load i32, ptr %ref.i, align 4
  %tobool.not.i = icmp eq i32 %19, 0
  br i1 %tobool.not.i, label %if.else.i, label %if.end.i

if.else.i:                                        ; preds = %out
  call void @__assert_fail(ptr noundef nonnull @.str.13, ptr noundef nonnull @.str, i32 noundef 396, ptr noundef nonnull @__PRETTY_FUNCTION__.put_fid) #28
  unreachable

if.end.i:                                         ; preds = %out
  %dec.i = add i32 %19, -1
  store i32 %dec.i, ptr %ref.i, align 4
  %tobool3.not.i = icmp eq i32 %dec.i, 0
  br i1 %tobool3.not.i, label %land.lhs.true.i, label %out_nofid

land.lhs.true.i:                                  ; preds = %if.end.i
  %clunked.i = getelementptr inbounds nuw i8, ptr %call2, i64 264
  %20 = load i8, ptr %clunked.i, align 8
  %tobool4.i = trunc i8 %20 to i1
  br i1 %tobool4.i, label %if.then5.i, label %out_nofid

if.then5.i:                                       ; preds = %land.lhs.true.i
  %fid.i = getelementptr inbounds nuw i8, ptr %call2, i64 4
  %21 = load i32, ptr %fid.i, align 4
  %s.i = getelementptr inbounds nuw i8, ptr %opaque, i64 24
  %22 = load ptr, ptr %s.i, align 8
  %root_fid.i = getelementptr inbounds nuw i8, ptr %22, i64 7360
  %23 = load i32, ptr %root_fid.i, align 8
  %cmp.i = icmp eq i32 %21, %23
  br i1 %cmp.i, label %if.then6.i, label %if.end8.i

if.then6.i:                                       ; preds = %if.then5.i
  %migration_blocker.i = getelementptr inbounds nuw i8, ptr %22, i64 7368
  call void @migrate_del_blocker(ptr noundef nonnull %migration_blocker.i) #24
  br label %if.end8.i

if.end8.i:                                        ; preds = %if.then6.i, %if.then5.i
  %call.i = call i32 @free_fid(ptr noundef nonnull %opaque, ptr noundef nonnull %call2)
  br label %out_nofid

out_nofid:                                        ; preds = %if.end8.i, %land.lhs.true.i, %if.end.i, %trace_v9fs_readlink.exit, %entry
  %err.0 = phi i32 [ %conv, %entry ], [ -2, %trace_v9fs_readlink.exit ], [ %err.1, %if.end.i ], [ %err.1, %land.lhs.true.i ], [ %err.1, %if.end8.i ]
  %conv23 = sext i32 %err.0 to i64
  call void @pdu_complete(ptr noundef %opaque, i64 noundef %conv23)
  ret void
}